; Function Attrs: nounwind sspstrong uwtable
define internal zeroext i1 @esp_pdma_needed(ptr noundef %opaque) #0 {
entry:
  %call.i = tail call ptr @object_dynamic_cast_assert(ptr noundef %opaque, ptr noundef nonnull @.str.3, ptr noundef nonnull @.str.104, i32 noundef 20, ptr noundef nonnull @__func__.ESP) #10
  %dma_memory_read = getelementptr inbounds nuw i8, ptr %call.i, i64 464
  %0 = load ptr, ptr %dma_memory_read, align 8
  %cmp = icmp eq ptr %0, null
  br i1 %cmp, label %land.lhs.true, label %land.end

land.lhs.true:                                    ; preds = %entry
  %dma_memory_write = getelementptr inbounds nuw i8, ptr %call.i, i64 472
  %1 = load ptr, ptr %dma_memory_write, align 8
  %cmp1 = icmp eq ptr %1, null
  br i1 %cmp1, label %land.rhs, label %land.end

land.rhs:                                         ; preds = %land.lhs.true
  %dma_enabled = getelementptr inbounds nuw i8, ptr %call.i, i64 444
  %2 = load i32, ptr %dma_enabled, align 4
  %tobool = icmp ne i32 %2, 0
  br label %land.end

land.end:                                         ; preds = %land.rhs, %land.lhs.true, %entry
  %3 = phi i1 [ false, %land.lhs.true ], [ false, %entry ], [ %tobool, %land.rhs ]
  ret i1 %3
}